target datalayout = "e-m:e-p270:32:32-p271:32:32-p272:64:64-i64:64-i128:128-f80:128-n8:16:32:64-S128"
target triple = "x86_64-pc-linux-gnu"

%struct._lv_menu_t = type { %struct._lv_obj_t, ptr, ptr, ptr, ptr, ptr, ptr, ptr, ptr, ptr, ptr, ptr, ptr, %struct.lv_ll_t, i8, i8, i8 }
%struct._lv_obj_t = type { ptr, ptr, ptr, ptr, ptr, %struct.lv_area_t, i32, i16, i16 }
%struct.lv_area_t = type { i32, i32, i32, i32 }
%struct.lv_ll_t = type { i32, ptr, ptr }
%struct._lv_menu_history_t = type { ptr }

; Function Attrs: nounwind uwtable
define internal void @lv_menu_refr(ptr noundef %0) #0 {
  %2 = alloca ptr, align 8
  %3 = alloca ptr, align 8
  %4 = alloca ptr, align 8
  %5 = alloca ptr, align 8
  %6 = alloca ptr, align 8
  store ptr %0, ptr %2, align 8, !tbaa !3
  br label %7

7:                                                ; preds = %1
  br label %8

8:                                                ; preds = %7
  call void @llvm.lifetime.start.p0(i64 8, ptr %3) #3
  %9 = load ptr, ptr %2, align 8, !tbaa !3
  store ptr %9, ptr %3, align 8, !tbaa !3
  call void @llvm.lifetime.start.p0(i64 8, ptr %4) #3
  %10 = load ptr, ptr %3, align 8, !tbaa !3
  %11 = getelementptr inbounds nuw %struct._lv_menu_t, ptr %10, i32 0, i32 13
  store ptr %11, ptr %4, align 8, !tbaa !3
  call void @llvm.lifetime.start.p0(i64 8, ptr %5) #3
  %12 = load ptr, ptr %4, align 8, !tbaa !3
  %13 = call ptr @lv_ll_get_head(ptr noundef %12)
  store ptr %13, ptr %5, align 8, !tbaa !3
  call void @llvm.lifetime.start.p0(i64 8, ptr %6) #3
  store ptr null, ptr %6, align 8, !tbaa !3
  %14 = load ptr, ptr %5, align 8, !tbaa !3
  %15 = icmp ne ptr %14, null
  br i1 %15, label %16, label %27

16:                                               ; preds = %8
  %17 = load ptr, ptr %5, align 8, !tbaa !3
  %18 = getelementptr inbounds nuw %struct._lv_menu_history_t, ptr %17, i32 0, i32 0
  %19 = load ptr, ptr %18, align 8, !tbaa !33
  store ptr %19, ptr %6, align 8, !tbaa !3
  %20 = load ptr, ptr %4, align 8, !tbaa !3
  %21 = load ptr, ptr %5, align 8, !tbaa !3
  call void @lv_ll_remove(ptr noundef %20, ptr noundef %21)
  %22 = load ptr, ptr %5, align 8, !tbaa !3
  call void @lv_free(ptr noundef %22)
  %23 = load ptr, ptr %3, align 8, !tbaa !3
  %24 = getelementptr inbounds nuw %struct._lv_menu_t, ptr %23, i32 0, i32 14
  %25 = load i8, ptr %24, align 8, !tbaa !7
  %26 = add i8 %25, -1
  store i8 %26, ptr %24, align 8, !tbaa !7
  br label %27

27:                                               ; preds = %16, %8
  %28 = load ptr, ptr %2, align 8, !tbaa !3
  %29 = load ptr, ptr %6, align 8, !tbaa !3
  call void @lv_menu_set_page(ptr noundef %28, ptr noundef %29)
  call void @llvm.lifetime.end.p0(i64 8, ptr %6) #3
  call void @llvm.lifetime.end.p0(i64 8, ptr %5) #3
  call void @llvm.lifetime.end.p0(i64 8, ptr %4) #3
  call void @llvm.lifetime.end.p0(i64 8, ptr %3) #3
  ret void
}

; Function Attrs: nounwind uwtable
define void @lv_menu_set_mode_root_back_button(ptr noundef %0, i32 noundef %1) #0 {
  %3 = alloca ptr, align 8
  %4 = alloca i32, align 4
  %5 = alloca ptr, align 8
  store ptr %0, ptr %3, align 8, !tbaa !3
  store i32 %1, ptr %4, align 4, !tbaa !35
  br label %6

6:                                                ; preds = %2
  br label %7

7:                                                ; preds = %6
  call void @llvm.lifetime.start.p0(i64 8, ptr %5) #3
  %8 = load ptr, ptr %3, align 8, !tbaa !3
  store ptr %8, ptr %5, align 8, !tbaa !3
  %9 = load ptr, ptr %5, align 8, !tbaa !3
  %10 = getelementptr inbounds nuw %struct._lv_menu_t, ptr %9, i32 0, i32 16
  %11 = load i8, ptr %10, align 2
  %12 = lshr i8 %11, 3
  %13 = and i8 %12, 1
  %14 = zext i8 %13 to i32
  %15 = load i32, ptr %4, align 4, !tbaa !35
  %16 = icmp ne i32 %14, %15
  br i1 %16, label %17, label %28

17:                                               ; preds = %7
  %18 = load i32, ptr %4, align 4, !tbaa !35
  %19 = load ptr, ptr %5, align 8, !tbaa !3
  %20 = getelementptr inbounds nuw %struct._lv_menu_t, ptr %19, i32 0, i32 16
  %21 = trunc i32 %18 to i8
  %22 = load i8, ptr %20, align 2
  %23 = and i8 %21, 1
  %24 = shl i8 %23, 3
  %25 = and i8 %22, -9
  %26 = or i8 %25, %24
  store i8 %26, ptr %20, align 2
  %27 = load ptr, ptr %3, align 8, !tbaa !3
  call void @lv_menu_refr(ptr noundef %27)
  br label %28

28:                                               ; preds = %17, %7
  call void @llvm.lifetime.end.p0(i64 8, ptr %5) #3
  ret void
}