; Function Attrs: nounwind uwtable
define void @lv_menu_set_mode_root_back_button(ptr noundef %0, i32 noundef %1) local_unnamed_addr #0 {
  %3 = getelementptr inbounds nuw i8, ptr %0, i64 186
  %4 = load i8, ptr %3, align 2
  %5 = lshr i8 %4, 3
  %6 = and i8 %5, 1
  %7 = zext nneg i8 %6 to i32
  %.not = icmp eq i32 %1, %7
  br i1 %.not, label %21, label %8

8:                                                ; preds = %2
  %9 = trunc i32 %1 to i8
  %10 = shl i8 %9, 3
  %11 = and i8 %10, 8
  %12 = and i8 %4, -9
  %13 = or disjoint i8 %12, %11
  store i8 %13, ptr %3, align 2
  %14 = getelementptr inbounds nuw i8, ptr %0, i64 160
  %15 = tail call ptr @lv_ll_get_head(ptr noundef nonnull %14) #4
  %.not.i = icmp eq ptr %15, null
  br i1 %.not.i, label %lv_menu_refr.exit, label %16

16:                                               ; preds = %8
  %17 = load ptr, ptr %15, align 8, !tbaa !27
  tail call void @lv_ll_remove(ptr noundef nonnull %14, ptr noundef nonnull %15) #4
  tail call void @lv_free(ptr noundef nonnull %15) #4
  %18 = getelementptr inbounds nuw i8, ptr %0, i64 184
  %19 = load i8, ptr %18, align 8, !tbaa !3
  %20 = add i8 %19, -1
  store i8 %20, ptr %18, align 8, !tbaa !3
  br label %lv_menu_refr.exit

lv_menu_refr.exit:                                ; preds = %8, %16
  %.0.i = phi ptr [ %17, %16 ], [ null, %8 ]
  tail call void @lv_menu_set_page(ptr noundef nonnull %0, ptr noundef %.0.i)
  br label %21

21:                                               ; preds = %lv_menu_refr.exit, %2
  ret void
}